target datalayout = "e-m:e-p270:32:32-p271:32:32-p272:64:64-i64:64-i128:128-f80:128-n8:16:32:64-S128"
target triple = "x86_64-pc-linux-gnu"

%"struct.cv::bioinspired::SegmentationParameters" = type { float, float, float, float, float, float, float, float }
%"class.cv::bioinspired::TransientAreasSegmentationModuleImpl" = type { ptr, %"class.cv::bioinspired::BasicRetinaFilter", %"struct.cv::bioinspired::SegmentationParameters", %"class.std::valarray", %"class.std::valarray", %"class.std::valarray.4", ptr, ptr, i32, %"class.cv::Mat", %"class.cv::Mat" }
%"class.cv::bioinspired::BasicRetinaFilter" = type { %"class.cv::bioinspired::TemplateBuffer", %"class.std::valarray", i32, i32, %"class.std::valarray", %"class.std::valarray", %"class.std::valarray", float, float, float, float, float, float, float, float }
%"class.cv::bioinspired::TemplateBuffer" = type { ptr, %"class.std::valarray", i64, i64, i64, i64, i64 }
%"class.std::valarray" = type { i64, ptr }
%"class.std::valarray.4" = type { i64, ptr }
%"class.cv::Mat" = type { i32, i32, i32, i32, ptr, ptr, ptr, ptr, ptr, ptr, %"struct.cv::MatSize", %"struct.cv::MatStep" }
%"struct.cv::MatSize" = type { ptr }
%"struct.cv::MatStep" = type { ptr, [2 x i64] }

; Function Attrs: mustprogress uwtable
define hidden void @_ZN2cv11bioinspired36TransientAreasSegmentationModuleImpl5setupENS0_22SegmentationParametersE(ptr noundef nonnull align 8 dereferenceable(472) %0, ptr noundef byval(%"struct.cv::bioinspired::SegmentationParameters") align 8 %1) #4 align 2 {
  %3 = alloca ptr, align 8
  store ptr %0, ptr %3, align 8, !tbaa !12
  %4 = load ptr, ptr %3, align 8
  %5 = getelementptr inbounds nuw %"class.cv::bioinspired::TransientAreasSegmentationModuleImpl", ptr %4, i32 0, i32 2
  call void @llvm.memcpy.p0.p0.i64(ptr align 8 %5, ptr align 8 %1, i64 32, i1 false), !tbaa.struct !22
  %6 = getelementptr inbounds i8, ptr %4, i64 8
  %7 = getelementptr inbounds nuw %"struct.cv::bioinspired::SegmentationParameters", ptr %1, i32 0, i32 2
  %8 = load float, ptr %7, align 8, !tbaa !30
  %9 = getelementptr inbounds nuw %"struct.cv::bioinspired::SegmentationParameters", ptr %1, i32 0, i32 3
  %10 = load float, ptr %9, align 4, !tbaa !31
  call void @_ZN2cv11bioinspired17BasicRetinaFilter21setLPfilterParametersEfffj(ptr noundef nonnull align 8 dereferenceable(168) %6, float noundef 0.000000e+00, float noundef %8, float noundef %10, i32 noundef 0)
  %11 = getelementptr inbounds i8, ptr %4, i64 8
  %12 = getelementptr inbounds nuw %"struct.cv::bioinspired::SegmentationParameters", ptr %1, i32 0, i32 4
  %13 = load float, ptr %12, align 8, !tbaa !32
  %14 = getelementptr inbounds nuw %"struct.cv::bioinspired::SegmentationParameters", ptr %1, i32 0, i32 5
  %15 = load float, ptr %14, align 4, !tbaa !33
  call void @_ZN2cv11bioinspired17BasicRetinaFilter21setLPfilterParametersEfffj(ptr noundef nonnull align 8 dereferenceable(168) %11, float noundef 0.000000e+00, float noundef %13, float noundef %15, i32 noundef 1)
  %16 = getelementptr inbounds i8, ptr %4, i64 8
  %17 = getelementptr inbounds nuw %"struct.cv::bioinspired::SegmentationParameters", ptr %1, i32 0, i32 6
  %18 = load float, ptr %17, align 8, !tbaa !34
  %19 = getelementptr inbounds nuw %"struct.cv::bioinspired::SegmentationParameters", ptr %1, i32 0, i32 7
  %20 = load float, ptr %19, align 4, !tbaa !35
  call void @_ZN2cv11bioinspired17BasicRetinaFilter21setLPfilterParametersEfffj(ptr noundef nonnull align 8 dereferenceable(168) %16, float noundef 0.000000e+00, float noundef %18, float noundef %20, i32 noundef 2)
  ret void
}