; Function Attrs: mustprogress uwtable
define hidden void @_ZN2cv11bioinspired36TransientAreasSegmentationModuleImpl5setupENS0_22SegmentationParametersE(ptr noundef nonnull align 8 dereferenceable(472) initializes((176, 208)) %0, ptr noundef readonly byval(%"struct.cv::bioinspired::SegmentationParameters") align 8 captures(none) %1) local_unnamed_addr #3 align 2 {
  %3 = getelementptr inbounds nuw i8, ptr %0, i64 176
  call void @llvm.memcpy.p0.p0.i64(ptr noundef nonnull align 8 dereferenceable(32) %3, ptr noundef nonnull align 8 dereferenceable(32) %1, i64 32, i1 false), !tbaa.struct !59
  %4 = getelementptr inbounds nuw i8, ptr %0, i64 8
  %5 = getelementptr inbounds nuw i8, ptr %1, i64 8
  %6 = load float, ptr %5, align 8, !tbaa !27
  %7 = getelementptr inbounds nuw i8, ptr %1, i64 12
  %8 = load float, ptr %7, align 4, !tbaa !28
  tail call void @_ZN2cv11bioinspired17BasicRetinaFilter21setLPfilterParametersEfffj(ptr noundef nonnull align 8 dereferenceable(168) %4, float noundef 0.000000e+00, float noundef %6, float noundef %8, i32 noundef 0)
  %9 = getelementptr inbounds nuw i8, ptr %1, i64 16
  %10 = load float, ptr %9, align 8, !tbaa !29
  %11 = getelementptr inbounds nuw i8, ptr %1, i64 20
  %12 = load float, ptr %11, align 4, !tbaa !30
  tail call void @_ZN2cv11bioinspired17BasicRetinaFilter21setLPfilterParametersEfffj(ptr noundef nonnull align 8 dereferenceable(168) %4, float noundef 0.000000e+00, float noundef %10, float noundef %12, i32 noundef 1)
  %13 = getelementptr inbounds nuw i8, ptr %1, i64 24
  %14 = load float, ptr %13, align 8, !tbaa !31
  %15 = getelementptr inbounds nuw i8, ptr %1, i64 28
  %16 = load float, ptr %15, align 4, !tbaa !32
  tail call void @_ZN2cv11bioinspired17BasicRetinaFilter21setLPfilterParametersEfffj(ptr noundef nonnull align 8 dereferenceable(168) %4, float noundef 0.000000e+00, float noundef %14, float noundef %16, i32 noundef 2)
  ret void
}